target datalayout = "e-m:e-p270:32:32-p271:32:32-p272:64:64-i64:64-i128:128-f80:128-n8:16:32:64-S128"
target triple = "x86_64-pc-linux-gnu"

%"class.gmx::ISignaller" = type { ptr }
%"class.std::vector" = type { %"struct.std::_Vector_base" }
%"struct.std::_Vector_base" = type { %"struct.std::_Vector_base<std::function<void (long, double)>, std::allocator<std::function<void (long, double)>>>::_Vector_impl" }
%"struct.std::_Vector_base<std::function<void (long, double)>, std::allocator<std::function<void (long, double)>>>::_Vector_impl" = type { %"struct.std::_Vector_base<std::function<void (long, double)>, std::allocator<std::function<void (long, double)>>>::_Vector_impl_data" }
%"struct.std::_Vector_base<std::function<void (long, double)>, std::allocator<std::function<void (long, double)>>>::_Vector_impl_data" = type { ptr, ptr, ptr }
%"class.std::function" = type { %"class.std::_Function_base", ptr }
%"class.std::_Function_base" = type { %"union.std::_Any_data", ptr }
%"union.std::_Any_data" = type { %"union.std::_Nocopy_types" }
%"union.std::_Nocopy_types" = type { { i64, i64 } }
%"class.gmx::EnergySignaller" = type <{ %"class.gmx::ISignaller", %"class.gmx::ITrajectorySignallerClient", %"class.gmx::ILoggingSignallerClient", %"class.std::vector", %"class.std::vector", %"class.std::vector", i32, i32, i32, i32, i64, i8, [7 x i8], i64, i8, [7 x i8] }>
%"class.gmx::ITrajectorySignallerClient" = type { ptr }
%"class.gmx::ILoggingSignallerClient" = type { ptr }
%"class.__gnu_cxx::__normal_iterator" = type { ptr }

; Function Attrs: mustprogress nounwind uwtable
define linkonce_odr noundef zeroext i1 @_ZNKSt14_Function_base8_M_emptyEv(ptr noundef nonnull align 8 dereferenceable(24) %0) #1 comdat align 2 {
  %2 = alloca ptr, align 8
  store ptr %0, ptr %2, align 8
  %3 = load ptr, ptr %2, align 8
  %4 = getelementptr inbounds %"class.std::_Function_base", ptr %3, i32 0, i32 1
  %5 = load ptr, ptr %4, align 8
  %6 = icmp ne ptr %5, null
  %7 = xor i1 %6, true
  ret i1 %7
}

; Function Attrs: mustprogress nounwind uwtable
define linkonce_odr noundef nonnull align 8 dereferenceable(8) ptr @_ZNK9__gnu_cxx17__normal_iteratorIPKSt8functionIFvldEESt6vectorIS3_SaIS3_EEE4baseEv(ptr noundef nonnull align 8 dereferenceable(8) %0) #1 comdat align 2 {
  %2 = alloca ptr, align 8
  store ptr %0, ptr %2, align 8
  %3 = load ptr, ptr %2, align 8
  %4 = getelementptr inbounds %"class.__gnu_cxx::__normal_iterator", ptr %3, i32 0, i32 0
  ret ptr %4
}

; Function Attrs: mustprogress nounwind uwtable
define linkonce_odr void @_ZN9__gnu_cxx17__normal_iteratorIPKSt8functionIFvldEESt6vectorIS3_SaIS3_EEEC2ERKS5_(ptr noundef nonnull align 8 dereferenceable(8) %0, ptr noundef nonnull align 8 dereferenceable(8) %1) unnamed_addr #1 comdat align 2 {
  %3 = alloca ptr, align 8
  %4 = alloca ptr, align 8
  store ptr %0, ptr %3, align 8
  store ptr %1, ptr %4, align 8
  %5 = load ptr, ptr %3, align 8
  %6 = getelementptr inbounds %"class.__gnu_cxx::__normal_iterator", ptr %5, i32 0, i32 0
  %7 = load ptr, ptr %4, align 8
  %8 = load ptr, ptr %7, align 8
  store ptr %8, ptr %6, align 8
  ret void
}

; Function Attrs: mustprogress nounwind uwtable
define linkonce_odr noundef nonnull align 8 dereferenceable(8) ptr @_ZN9__gnu_cxx17__normal_iteratorIPKSt8functionIFvldEESt6vectorIS3_SaIS3_EEEppEv(ptr noundef nonnull align 8 dereferenceable(8) %0) #1 comdat align 2 {
  %2 = alloca ptr, align 8
  store ptr %0, ptr %2, align 8
  %3 = load ptr, ptr %2, align 8
  %4 = getelementptr inbounds %"class.__gnu_cxx::__normal_iterator", ptr %3, i32 0, i32 0
  %5 = load ptr, ptr %4, align 8
  %6 = getelementptr inbounds %"class.std::function", ptr %5, i32 1
  store ptr %6, ptr %4, align 8
  ret ptr %3
}

; Function Attrs: mustprogress uwtable
define linkonce_odr void @_ZNKSt8functionIFvldEEclEld(ptr noundef nonnull align 8 dereferenceable(32) %0, i64 noundef %1, double noundef %2) #0 comdat align 2 {
  %4 = alloca ptr, align 8
  %5 = alloca i64, align 8
  %6 = alloca double, align 8
  store ptr %0, ptr %4, align 8
  store i64 %1, ptr %5, align 8
  store double %2, ptr %6, align 8
  %7 = load ptr, ptr %4, align 8
  %8 = call noundef zeroext i1 @_ZNKSt14_Function_base8_M_emptyEv(ptr noundef nonnull align 8 dereferenceable(24) %7)
  br i1 %8, label %9, label %10

9:                                                ; preds = %3
  call void @_ZSt25__throw_bad_function_callv() #13
  unreachable

10:                                               ; preds = %3
  %11 = getelementptr inbounds %"class.std::function", ptr %7, i32 0, i32 1
  %12 = load ptr, ptr %11, align 8
  %13 = getelementptr inbounds %"class.std::_Function_base", ptr %7, i32 0, i32 0
  call void %12(ptr noundef nonnull align 8 dereferenceable(16) %13, ptr noundef nonnull align 8 dereferenceable(8) %5, ptr noundef nonnull align 8 dereferenceable(8) %6)
  ret void
}

; Function Attrs: mustprogress nounwind uwtable
define linkonce_odr noundef nonnull align 8 dereferenceable(32) ptr @_ZNK9__gnu_cxx17__normal_iteratorIPKSt8functionIFvldEESt6vectorIS3_SaIS3_EEEdeEv(ptr noundef nonnull align 8 dereferenceable(8) %0) #1 comdat align 2 {
  %2 = alloca ptr, align 8
  store ptr %0, ptr %2, align 8
  %3 = load ptr, ptr %2, align 8
  %4 = getelementptr inbounds %"class.__gnu_cxx::__normal_iterator", ptr %3, i32 0, i32 0
  %5 = load ptr, ptr %4, align 8
  ret ptr %5
}

; Function Attrs: mustprogress nounwind uwtable
define linkonce_odr noundef zeroext i1 @_ZN9__gnu_cxxneIPKSt8functionIFvldEESt6vectorIS3_SaIS3_EEEEbRKNS_17__normal_iteratorIT_T0_EESE_(ptr noundef nonnull align 8 dereferenceable(8) %0, ptr noundef nonnull align 8 dereferenceable(8) %1) #1 comdat {
  %3 = alloca ptr, align 8
  %4 = alloca ptr, align 8
  store ptr %0, ptr %3, align 8
  store ptr %1, ptr %4, align 8
  %5 = load ptr, ptr %3, align 8
  %6 = call noundef nonnull align 8 dereferenceable(8) ptr @_ZNK9__gnu_cxx17__normal_iteratorIPKSt8functionIFvldEESt6vectorIS3_SaIS3_EEE4baseEv(ptr noundef nonnull align 8 dereferenceable(8) %5) #10
  %7 = load ptr, ptr %6, align 8
  %8 = load ptr, ptr %4, align 8
  %9 = call noundef nonnull align 8 dereferenceable(8) ptr @_ZNK9__gnu_cxx17__normal_iteratorIPKSt8functionIFvldEESt6vectorIS3_SaIS3_EEE4baseEv(ptr noundef nonnull align 8 dereferenceable(8) %8) #10
  %10 = load ptr, ptr %9, align 8
  %11 = icmp ne ptr %7, %10
  ret i1 %11
}

; Function Attrs: mustprogress nounwind uwtable
define linkonce_odr ptr @_ZNKSt6vectorISt8functionIFvldEESaIS2_EE3endEv(ptr noundef nonnull align 8 dereferenceable(24) %0) #1 comdat align 2 {
  %2 = alloca %"class.__gnu_cxx::__normal_iterator", align 8
  %3 = alloca ptr, align 8
  store ptr %0, ptr %3, align 8
  %4 = load ptr, ptr %3, align 8
  %5 = getelementptr inbounds %"struct.std::_Vector_base", ptr %4, i32 0, i32 0
  %6 = getelementptr inbounds %"struct.std::_Vector_base<std::function<void (long, double)>, std::allocator<std::function<void (long, double)>>>::_Vector_impl_data", ptr %5, i32 0, i32 1
  call void @_ZN9__gnu_cxx17__normal_iteratorIPKSt8functionIFvldEESt6vectorIS3_SaIS3_EEEC2ERKS5_(ptr noundef nonnull align 8 dereferenceable(8) %2, ptr noundef nonnull align 8 dereferenceable(8) %6) #10
  %7 = getelementptr inbounds %"class.__gnu_cxx::__normal_iterator", ptr %2, i32 0, i32 0
  %8 = load ptr, ptr %7, align 8
  ret ptr %8
}

; Function Attrs: mustprogress nounwind uwtable
define linkonce_odr ptr @_ZNKSt6vectorISt8functionIFvldEESaIS2_EE5beginEv(ptr noundef nonnull align 8 dereferenceable(24) %0) #1 comdat align 2 {
  %2 = alloca %"class.__gnu_cxx::__normal_iterator", align 8
  %3 = alloca ptr, align 8
  store ptr %0, ptr %3, align 8
  %4 = load ptr, ptr %3, align 8
  %5 = getelementptr inbounds %"struct.std::_Vector_base", ptr %4, i32 0, i32 0
  %6 = getelementptr inbounds %"struct.std::_Vector_base<std::function<void (long, double)>, std::allocator<std::function<void (long, double)>>>::_Vector_impl_data", ptr %5, i32 0, i32 0
  call void @_ZN9__gnu_cxx17__normal_iteratorIPKSt8functionIFvldEESt6vectorIS3_SaIS3_EEEC2ERKS5_(ptr noundef nonnull align 8 dereferenceable(8) %2, ptr noundef nonnull align 8 dereferenceable(8) %6) #10
  %7 = getelementptr inbounds %"class.__gnu_cxx::__normal_iterator", ptr %2, i32 0, i32 0
  %8 = load ptr, ptr %7, align 8
  ret ptr %8
}

; Function Attrs: mustprogress uwtable
define internal void @_ZN3gmxL15runAllCallbacksERKSt6vectorISt8functionIFvldEESaIS3_EEld(ptr noundef nonnull align 8 dereferenceable(24) %0, i64 noundef %1, double noundef %2) #0 {
  %4 = alloca ptr, align 8
  %5 = alloca i64, align 8
  %6 = alloca double, align 8
  %7 = alloca ptr, align 8
  %8 = alloca %"class.__gnu_cxx::__normal_iterator", align 8
  %9 = alloca %"class.__gnu_cxx::__normal_iterator", align 8
  %10 = alloca ptr, align 8
  store ptr %0, ptr %4, align 8
  store i64 %1, ptr %5, align 8
  store double %2, ptr %6, align 8
  %11 = load ptr, ptr %4, align 8
  store ptr %11, ptr %7, align 8
  %12 = load ptr, ptr %7, align 8
  %13 = call ptr @_ZNKSt6vectorISt8functionIFvldEESaIS2_EE5beginEv(ptr noundef nonnull align 8 dereferenceable(24) %12) #10
  %14 = getelementptr inbounds %"class.__gnu_cxx::__normal_iterator", ptr %8, i32 0, i32 0
  store ptr %13, ptr %14, align 8
  %15 = load ptr, ptr %7, align 8
  %16 = call ptr @_ZNKSt6vectorISt8functionIFvldEESaIS2_EE3endEv(ptr noundef nonnull align 8 dereferenceable(24) %15) #10
  %17 = getelementptr inbounds %"class.__gnu_cxx::__normal_iterator", ptr %9, i32 0, i32 0
  store ptr %16, ptr %17, align 8
  br label %18

18:                                               ; preds = %25, %3
  %19 = call noundef zeroext i1 @_ZN9__gnu_cxxneIPKSt8functionIFvldEESt6vectorIS3_SaIS3_EEEEbRKNS_17__normal_iteratorIT_T0_EESE_(ptr noundef nonnull align 8 dereferenceable(8) %8, ptr noundef nonnull align 8 dereferenceable(8) %9) #10
  br i1 %19, label %20, label %27

20:                                               ; preds = %18
  %21 = call noundef nonnull align 8 dereferenceable(32) ptr @_ZNK9__gnu_cxx17__normal_iteratorIPKSt8functionIFvldEESt6vectorIS3_SaIS3_EEEdeEv(ptr noundef nonnull align 8 dereferenceable(8) %8) #10
  store ptr %21, ptr %10, align 8
  %22 = load ptr, ptr %10, align 8
  %23 = load i64, ptr %5, align 8
  %24 = load double, ptr %6, align 8
  call void @_ZNKSt8functionIFvldEEclEld(ptr noundef nonnull align 8 dereferenceable(32) %22, i64 noundef %23, double noundef %24)
  br label %25

25:                                               ; preds = %20
  %26 = call noundef nonnull align 8 dereferenceable(8) ptr @_ZN9__gnu_cxx17__normal_iteratorIPKSt8functionIFvldEESt6vectorIS3_SaIS3_EEEppEv(ptr noundef nonnull align 8 dereferenceable(8) %8) #10
  br label %18

27:                                               ; preds = %18
  ret void
}

; Function Attrs: mustprogress nounwind uwtable
define linkonce_odr noundef zeroext i1 @_Z11do_per_stepll(i64 noundef %0, i64 noundef %1) #1 comdat {
  %3 = alloca i1, align 1
  %4 = alloca i64, align 8
  %5 = alloca i64, align 8
  store i64 %0, ptr %4, align 8
  store i64 %1, ptr %5, align 8
  %6 = load i64, ptr %5, align 8
  %7 = icmp ne i64 %6, 0
  br i1 %7, label %8, label %13

8:                                                ; preds = %2
  %9 = load i64, ptr %4, align 8
  %10 = load i64, ptr %5, align 8
  %11 = srem i64 %9, %10
  %12 = icmp eq i64 %11, 0
  store i1 %12, ptr %3, align 1
  br label %14

13:                                               ; preds = %2
  store i1 false, ptr %3, align 1
  br label %14

14:                                               ; preds = %13, %8
  %15 = load i1, ptr %3, align 1
  ret i1 %15
}

; Function Attrs: mustprogress uwtable
define void @_ZN3gmx15EnergySignaller6signalEld(ptr noundef nonnull align 8 dereferenceable(144) %0, i64 noundef %1, double noundef %2) unnamed_addr #0 align 2 {
  %4 = alloca ptr, align 8
  %5 = alloca i64, align 8
  %6 = alloca double, align 8
  %7 = alloca i8, align 1
  %8 = alloca i8, align 1
  %9 = alloca i8, align 1
  %10 = alloca i8, align 1
  %11 = alloca i8, align 1
  store ptr %0, ptr %4, align 8
  store i64 %1, ptr %5, align 8
  store double %2, ptr %6, align 8
  %12 = load ptr, ptr %4, align 8
  %13 = getelementptr inbounds %"class.gmx::EnergySignaller", ptr %12, i32 0, i32 10
  %14 = load i64, ptr %13, align 8
  %15 = load i64, ptr %5, align 8
  %16 = icmp eq i64 %14, %15
  %17 = zext i1 %16 to i8
  store i8 %17, ptr %7, align 1
  %18 = getelementptr inbounds %"class.gmx::EnergySignaller", ptr %12, i32 0, i32 13
  %19 = load i64, ptr %18, align 8
  %20 = load i64, ptr %5, align 8
  %21 = icmp eq i64 %19, %20
  %22 = zext i1 %21 to i8
  store i8 %22, ptr %8, align 1
  %23 = load i8, ptr %7, align 1
  %24 = trunc i8 %23 to i1
  br i1 %24, label %34, label %25

25:                                               ; preds = %3
  %26 = load i8, ptr %8, align 1
  %27 = trunc i8 %26 to i1
  br i1 %27, label %34, label %28

28:                                               ; preds = %25
  %29 = load i64, ptr %5, align 8
  %30 = getelementptr inbounds %"class.gmx::EnergySignaller", ptr %12, i32 0, i32 6
  %31 = load i32, ptr %30, align 8
  %32 = sext i32 %31 to i64
  %33 = call noundef zeroext i1 @_Z11do_per_stepll(i64 noundef %29, i64 noundef %32)
  br label %34

34:                                               ; preds = %28, %25, %3
  %35 = phi i1 [ true, %25 ], [ true, %3 ], [ %33, %28 ]
  %36 = zext i1 %35 to i8
  store i8 %36, ptr %9, align 1
  %37 = load i8, ptr %9, align 1
  %38 = trunc i8 %37 to i1
  br i1 %38, label %66, label %39

39:                                               ; preds = %34
  %40 = getelementptr inbounds %"class.gmx::EnergySignaller", ptr %12, i32 0, i32 9
  %41 = load i32, ptr %40, align 4
  %42 = icmp eq i32 %41, 1
  br i1 %42, label %47, label %43

43:                                               ; preds = %39
  %44 = getelementptr inbounds %"class.gmx::EnergySignaller", ptr %12, i32 0, i32 9
  %45 = load i32, ptr %44, align 4
  %46 = icmp eq i32 %45, 2
  br i1 %46, label %47, label %53

47:                                               ; preds = %43, %39
  %48 = load i64, ptr %5, align 8
  %49 = getelementptr inbounds %"class.gmx::EnergySignaller", ptr %12, i32 0, i32 8
  %50 = load i32, ptr %49, align 8
  %51 = sext i32 %50 to i64
  %52 = call noundef zeroext i1 @_Z11do_per_stepll(i64 noundef %48, i64 noundef %51)
  br i1 %52, label %66, label %53

53:                                               ; preds = %47, %43
  %54 = getelementptr inbounds %"class.gmx::EnergySignaller", ptr %12, i32 0, i32 9
  %55 = load i32, ptr %54, align 4
  %56 = icmp eq i32 %55, 2
  br i1 %56, label %57, label %64

57:                                               ; preds = %53
  %58 = load i64, ptr %5, align 8
  %59 = sub nsw i64 %58, 1
  %60 = getelementptr inbounds %"class.gmx::EnergySignaller", ptr %12, i32 0, i32 8
  %61 = load i32, ptr %60, align 8
  %62 = sext i32 %61 to i64
  %63 = call noundef zeroext i1 @_Z11do_per_stepll(i64 noundef %59, i64 noundef %62)
  br label %64

64:                                               ; preds = %57, %53
  %65 = phi i1 [ false, %53 ], [ %63, %57 ]
  br label %66

66:                                               ; preds = %64, %47, %34
  %67 = phi i1 [ true, %47 ], [ true, %34 ], [ %65, %64 ]
  %68 = zext i1 %67 to i8
  store i8 %68, ptr %10, align 1
  %69 = load i64, ptr %5, align 8
  %70 = getelementptr inbounds %"class.gmx::EnergySignaller", ptr %12, i32 0, i32 7
  %71 = load i32, ptr %70, align 4
  %72 = sext i32 %71 to i64
  %73 = call noundef zeroext i1 @_Z11do_per_stepll(i64 noundef %69, i64 noundef %72)
  br i1 %73, label %77, label %74

74:                                               ; preds = %66
  %75 = load i8, ptr %9, align 1
  %76 = trunc i8 %75 to i1
  br label %77

77:                                               ; preds = %74, %66
  %78 = phi i1 [ true, %66 ], [ %76, %74 ]
  %79 = zext i1 %78 to i8
  store i8 %79, ptr %11, align 1
  %80 = load i8, ptr %9, align 1
  %81 = trunc i8 %80 to i1
  br i1 %81, label %82, label %86

82:                                               ; preds = %77
  %83 = getelementptr inbounds %"class.gmx::EnergySignaller", ptr %12, i32 0, i32 3
  %84 = load i64, ptr %5, align 8
  %85 = load double, ptr %6, align 8
  call void @_ZN3gmxL15runAllCallbacksERKSt6vectorISt8functionIFvldEESaIS3_EEld(ptr noundef nonnull align 8 dereferenceable(24) %83, i64 noundef %84, double noundef %85)
  br label %86

86:                                               ; preds = %82, %77
  %87 = load i8, ptr %10, align 1
  %88 = trunc i8 %87 to i1
  br i1 %88, label %89, label %93

89:                                               ; preds = %86
  %90 = getelementptr inbounds %"class.gmx::EnergySignaller", ptr %12, i32 0, i32 4
  %91 = load i64, ptr %5, align 8
  %92 = load double, ptr %6, align 8
  call void @_ZN3gmxL15runAllCallbacksERKSt6vectorISt8functionIFvldEESaIS3_EEld(ptr noundef nonnull align 8 dereferenceable(24) %90, i64 noundef %91, double noundef %92)
  br label %93

93:                                               ; preds = %89, %86
  %94 = load i8, ptr %11, align 1
  %95 = trunc i8 %94 to i1
  br i1 %95, label %96, label %100

96:                                               ; preds = %93
  %97 = getelementptr inbounds %"class.gmx::EnergySignaller", ptr %12, i32 0, i32 5
  %98 = load i64, ptr %5, align 8
  %99 = load double, ptr %6, align 8
  call void @_ZN3gmxL15runAllCallbacksERKSt6vectorISt8functionIFvldEESaIS3_EEld(ptr noundef nonnull align 8 dereferenceable(24) %97, i64 noundef %98, double noundef %99)
  br label %100

100:                                              ; preds = %96, %93
  ret void
}