; Function Attrs: mustprogress uwtable
define void @_ZN3gmx15EnergySignaller6signalEld(ptr nocapture noundef nonnull readonly align 8 dereferenceable(144) %0, i64 noundef %1, double noundef %2) unnamed_addr #0 align 2 {
  %4 = alloca i64, align 8
  %5 = alloca double, align 8
  %6 = alloca i64, align 8
  %7 = alloca double, align 8
  %8 = alloca i64, align 8
  %9 = alloca double, align 8
  %10 = getelementptr inbounds i8, ptr %0, i64 112
  %11 = load i64, ptr %10, align 8
  %12 = icmp eq i64 %11, %1
  %13 = getelementptr inbounds i8, ptr %0, i64 128
  %14 = load i64, ptr %13, align 8
  %15 = icmp eq i64 %14, %1
  %or.cond = select i1 %12, i1 true, i1 %15
  br i1 %or.cond, label %_Z11do_per_stepll.exit32, label %16

16:                                               ; preds = %3
  %17 = getelementptr inbounds i8, ptr %0, i64 96
  %18 = load i32, ptr %17, align 8
  %.not.i = icmp eq i32 %18, 0
  br i1 %.not.i, label %_Z11do_per_stepll.exit.thread51, label %_Z11do_per_stepll.exit

_Z11do_per_stepll.exit:                           ; preds = %16
  %19 = sext i32 %18 to i64
  %20 = srem i64 %1, %19
  %21 = icmp eq i64 %20, 0
  br i1 %21, label %_Z11do_per_stepll.exit32, label %_Z11do_per_stepll.exit.thread51

_Z11do_per_stepll.exit.thread51:                  ; preds = %16, %_Z11do_per_stepll.exit
  %22 = getelementptr inbounds i8, ptr %0, i64 108
  %23 = load i32, ptr %22, align 4
  %.off = add i32 %23, -1
  %switch = icmp ult i32 %.off, 2
  br i1 %switch, label %24, label %_Z11do_per_stepll.exit32

24:                                               ; preds = %_Z11do_per_stepll.exit.thread51
  %25 = getelementptr inbounds i8, ptr %0, i64 104
  %26 = load i32, ptr %25, align 8
  %.not.i27 = icmp eq i32 %26, 0
  br i1 %.not.i27, label %_Z11do_per_stepll.exit32, label %_Z11do_per_stepll.exit29

_Z11do_per_stepll.exit29:                         ; preds = %24
  %27 = sext i32 %26 to i64
  %28 = srem i64 %1, %27
  %29 = icmp eq i64 %28, 0
  br i1 %29, label %_Z11do_per_stepll.exit32, label %_Z11do_per_stepll.exit29.thread.thread

_Z11do_per_stepll.exit29.thread.thread:           ; preds = %_Z11do_per_stepll.exit29
  %30 = icmp eq i32 %23, 2
  br i1 %30, label %31, label %_Z11do_per_stepll.exit32

31:                                               ; preds = %_Z11do_per_stepll.exit29.thread.thread
  %32 = sext i32 %26 to i64
  %33 = add nsw i64 %1, -1
  %34 = srem i64 %33, %32
  %35 = icmp eq i64 %34, 0
  br label %_Z11do_per_stepll.exit32

_Z11do_per_stepll.exit32:                         ; preds = %24, %_Z11do_per_stepll.exit29.thread.thread, %_Z11do_per_stepll.exit.thread51, %3, %31, %_Z11do_per_stepll.exit29, %_Z11do_per_stepll.exit
  %36 = phi i1 [ false, %_Z11do_per_stepll.exit29 ], [ true, %_Z11do_per_stepll.exit ], [ false, %31 ], [ true, %3 ], [ false, %_Z11do_per_stepll.exit.thread51 ], [ false, %_Z11do_per_stepll.exit29.thread.thread ], [ false, %24 ]
  %37 = phi i1 [ true, %_Z11do_per_stepll.exit29 ], [ true, %_Z11do_per_stepll.exit ], [ %35, %31 ], [ true, %3 ], [ false, %_Z11do_per_stepll.exit.thread51 ], [ false, %_Z11do_per_stepll.exit29.thread.thread ], [ false, %24 ]
  %38 = getelementptr inbounds i8, ptr %0, i64 100
  %39 = load i32, ptr %38, align 4
  %.not.i33 = icmp eq i32 %39, 0
  br i1 %.not.i33, label %_Z11do_per_stepll.exit35, label %40

40:                                               ; preds = %_Z11do_per_stepll.exit32
  %41 = sext i32 %39 to i64
  %42 = srem i64 %1, %41
  %43 = icmp eq i64 %42, 0
  br label %_Z11do_per_stepll.exit35

_Z11do_per_stepll.exit35:                         ; preds = %_Z11do_per_stepll.exit32, %40
  %.0.i34 = phi i1 [ %43, %40 ], [ false, %_Z11do_per_stepll.exit32 ]
  %44 = or i1 %36, %.0.i34
  br i1 %36, label %45, label %_ZN3gmxL15runAllCallbacksERKSt6vectorISt8functionIFvldEESaIS3_EEld.exit

45:                                               ; preds = %_Z11do_per_stepll.exit35
  %46 = getelementptr inbounds i8, ptr %0, i64 24
  %.val = load ptr, ptr %46, align 8
  %47 = getelementptr inbounds i8, ptr %0, i64 32
  %.val22 = load ptr, ptr %47, align 8
  %.not4.i = icmp eq ptr %.val, %.val22
  br i1 %.not4.i, label %_ZN3gmxL15runAllCallbacksERKSt6vectorISt8functionIFvldEESaIS3_EEld.exit, label %.lr.ph.i

.lr.ph.i:                                         ; preds = %45, %_ZNKSt8functionIFvldEEclEld.exit.i
  %.sroa.01.05.i = phi ptr [ %53, %_ZNKSt8functionIFvldEEclEld.exit.i ], [ %.val, %45 ]
  call void @llvm.lifetime.start.p0(i64 8, ptr nonnull %8)
  call void @llvm.lifetime.start.p0(i64 8, ptr nonnull %9)
  store i64 %1, ptr %8, align 8
  store double %2, ptr %9, align 8
  %48 = getelementptr inbounds i8, ptr %.sroa.01.05.i, i64 16
  %49 = load ptr, ptr %48, align 8
  %.not.i.i.i = icmp eq ptr %49, null
  br i1 %.not.i.i.i, label %50, label %_ZNKSt8functionIFvldEEclEld.exit.i

50:                                               ; preds = %.lr.ph.i
  call void @_ZSt25__throw_bad_function_callv() #14
  unreachable

_ZNKSt8functionIFvldEEclEld.exit.i:               ; preds = %.lr.ph.i
  %51 = getelementptr inbounds i8, ptr %.sroa.01.05.i, i64 24
  %52 = load ptr, ptr %51, align 8
  call void %52(ptr noundef nonnull align 8 dereferenceable(16) %.sroa.01.05.i, ptr noundef nonnull align 8 dereferenceable(8) %8, ptr noundef nonnull align 8 dereferenceable(8) %9)
  call void @llvm.lifetime.end.p0(i64 8, ptr nonnull %8)
  call void @llvm.lifetime.end.p0(i64 8, ptr nonnull %9)
  %53 = getelementptr inbounds i8, ptr %.sroa.01.05.i, i64 32
  %.not.i36 = icmp eq ptr %53, %.val22
  br i1 %.not.i36, label %_ZN3gmxL15runAllCallbacksERKSt6vectorISt8functionIFvldEESaIS3_EEld.exit, label %.lr.ph.i

_ZN3gmxL15runAllCallbacksERKSt6vectorISt8functionIFvldEESaIS3_EEld.exit: ; preds = %_ZNKSt8functionIFvldEEclEld.exit.i, %45, %_Z11do_per_stepll.exit35
  br i1 %37, label %54, label %_ZN3gmxL15runAllCallbacksERKSt6vectorISt8functionIFvldEESaIS3_EEld.exit43

54:                                               ; preds = %_ZN3gmxL15runAllCallbacksERKSt6vectorISt8functionIFvldEESaIS3_EEld.exit
  %55 = getelementptr inbounds i8, ptr %0, i64 48
  %.val23 = load ptr, ptr %55, align 8
  %56 = getelementptr inbounds i8, ptr %0, i64 56
  %.val24 = load ptr, ptr %56, align 8
  %.not4.i37 = icmp eq ptr %.val23, %.val24
  br i1 %.not4.i37, label %_ZN3gmxL15runAllCallbacksERKSt6vectorISt8functionIFvldEESaIS3_EEld.exit43, label %.lr.ph.i38

.lr.ph.i38:                                       ; preds = %54, %_ZNKSt8functionIFvldEEclEld.exit.i41
  %.sroa.01.05.i39 = phi ptr [ %62, %_ZNKSt8functionIFvldEEclEld.exit.i41 ], [ %.val23, %54 ]
  call void @llvm.lifetime.start.p0(i64 8, ptr nonnull %6)
  call void @llvm.lifetime.start.p0(i64 8, ptr nonnull %7)
  store i64 %1, ptr %6, align 8
  store double %2, ptr %7, align 8
  %57 = getelementptr inbounds i8, ptr %.sroa.01.05.i39, i64 16
  %58 = load ptr, ptr %57, align 8
  %.not.i.i.i40 = icmp eq ptr %58, null
  br i1 %.not.i.i.i40, label %59, label %_ZNKSt8functionIFvldEEclEld.exit.i41

59:                                               ; preds = %.lr.ph.i38
  call void @_ZSt25__throw_bad_function_callv() #14
  unreachable

_ZNKSt8functionIFvldEEclEld.exit.i41:             ; preds = %.lr.ph.i38
  %60 = getelementptr inbounds i8, ptr %.sroa.01.05.i39, i64 24
  %61 = load ptr, ptr %60, align 8
  call void %61(ptr noundef nonnull align 8 dereferenceable(16) %.sroa.01.05.i39, ptr noundef nonnull align 8 dereferenceable(8) %6, ptr noundef nonnull align 8 dereferenceable(8) %7)
  call void @llvm.lifetime.end.p0(i64 8, ptr nonnull %6)
  call void @llvm.lifetime.end.p0(i64 8, ptr nonnull %7)
  %62 = getelementptr inbounds i8, ptr %.sroa.01.05.i39, i64 32
  %.not.i42 = icmp eq ptr %62, %.val24
  br i1 %.not.i42, label %_ZN3gmxL15runAllCallbacksERKSt6vectorISt8functionIFvldEESaIS3_EEld.exit43, label %.lr.ph.i38

_ZN3gmxL15runAllCallbacksERKSt6vectorISt8functionIFvldEESaIS3_EEld.exit43: ; preds = %_ZNKSt8functionIFvldEEclEld.exit.i41, %54, %_ZN3gmxL15runAllCallbacksERKSt6vectorISt8functionIFvldEESaIS3_EEld.exit
  br i1 %44, label %63, label %_ZN3gmxL15runAllCallbacksERKSt6vectorISt8functionIFvldEESaIS3_EEld.exit50

63:                                               ; preds = %_ZN3gmxL15runAllCallbacksERKSt6vectorISt8functionIFvldEESaIS3_EEld.exit43
  %64 = getelementptr inbounds i8, ptr %0, i64 72
  %.val25 = load ptr, ptr %64, align 8
  %65 = getelementptr inbounds i8, ptr %0, i64 80
  %.val26 = load ptr, ptr %65, align 8
  %.not4.i44 = icmp eq ptr %.val25, %.val26
  br i1 %.not4.i44, label %_ZN3gmxL15runAllCallbacksERKSt6vectorISt8functionIFvldEESaIS3_EEld.exit50, label %.lr.ph.i45

.lr.ph.i45:                                       ; preds = %63, %_ZNKSt8functionIFvldEEclEld.exit.i48
  %.sroa.01.05.i46 = phi ptr [ %71, %_ZNKSt8functionIFvldEEclEld.exit.i48 ], [ %.val25, %63 ]
  call void @llvm.lifetime.start.p0(i64 8, ptr nonnull %4)
  call void @llvm.lifetime.start.p0(i64 8, ptr nonnull %5)
  store i64 %1, ptr %4, align 8
  store double %2, ptr %5, align 8
  %66 = getelementptr inbounds i8, ptr %.sroa.01.05.i46, i64 16
  %67 = load ptr, ptr %66, align 8
  %.not.i.i.i47 = icmp eq ptr %67, null
  br i1 %.not.i.i.i47, label %68, label %_ZNKSt8functionIFvldEEclEld.exit.i48

68:                                               ; preds = %.lr.ph.i45
  call void @_ZSt25__throw_bad_function_callv() #14
  unreachable

_ZNKSt8functionIFvldEEclEld.exit.i48:             ; preds = %.lr.ph.i45
  %69 = getelementptr inbounds i8, ptr %.sroa.01.05.i46, i64 24
  %70 = load ptr, ptr %69, align 8
  call void %70(ptr noundef nonnull align 8 dereferenceable(16) %.sroa.01.05.i46, ptr noundef nonnull align 8 dereferenceable(8) %4, ptr noundef nonnull align 8 dereferenceable(8) %5)
  call void @llvm.lifetime.end.p0(i64 8, ptr nonnull %4)
  call void @llvm.lifetime.end.p0(i64 8, ptr nonnull %5)
  %71 = getelementptr inbounds i8, ptr %.sroa.01.05.i46, i64 32
  %.not.i49 = icmp eq ptr %71, %.val26
  br i1 %.not.i49, label %_ZN3gmxL15runAllCallbacksERKSt6vectorISt8functionIFvldEESaIS3_EEld.exit50, label %.lr.ph.i45

_ZN3gmxL15runAllCallbacksERKSt6vectorISt8functionIFvldEESaIS3_EEld.exit50: ; preds = %_ZNKSt8functionIFvldEEclEld.exit.i48, %63, %_ZN3gmxL15runAllCallbacksERKSt6vectorISt8functionIFvldEESaIS3_EEld.exit43
  ret void
}